target datalayout = "e-m:e-p270:32:32-p271:32:32-p272:64:64-i64:64-i128:128-f80:128-n8:16:32:64-S128"
target triple = "x86_64-pc-linux-gnu"

%struct.TString = type { ptr, i8, i8, i8, i8, i32, %union.anon, ptr, ptr, ptr }
%union.anon = type { i64 }

@.str = private unnamed_addr constant [5 x i8] c"_ENV\00", align 1

; Function Attrs: nounwind uwtable
define hidden void @luaX_init(ptr noundef %0) #0 {
  %2 = alloca ptr, align 8
  %3 = alloca i32, align 4
  %4 = alloca ptr, align 8
  %5 = alloca ptr, align 8
  store ptr %0, ptr %2, align 8, !tbaa !4
  call void @llvm.lifetime.start.p0(i64 4, ptr %3) #6
  call void @llvm.lifetime.start.p0(i64 8, ptr %4) #6
  %6 = load ptr, ptr %2, align 8, !tbaa !4
  %7 = call ptr @luaS_newlstr(ptr noundef %6, ptr noundef @.str, i64 noundef 4)
  store ptr %7, ptr %4, align 8, !tbaa !9
  %8 = load ptr, ptr %2, align 8, !tbaa !4
  %9 = load ptr, ptr %4, align 8, !tbaa !9
  call void @luaC_fix(ptr noundef %8, ptr noundef %9)
  store i32 0, ptr %3, align 4, !tbaa !11
  br label %10

10:                                               ; preds = %27, %1
  %11 = load i32, ptr %3, align 4, !tbaa !11
  %12 = icmp slt i32 %11, 22
  br i1 %12, label %13, label %30

13:                                               ; preds = %10
  call void @llvm.lifetime.start.p0(i64 8, ptr %5) #6
  %14 = load ptr, ptr %2, align 8, !tbaa !4
  %15 = load i32, ptr %3, align 4, !tbaa !11
  %16 = sext i32 %15 to i64
  %17 = getelementptr inbounds [37 x ptr], ptr @luaX_tokens, i64 0, i64 %16
  %18 = load ptr, ptr %17, align 8, !tbaa !13
  %19 = call ptr @luaS_new(ptr noundef %14, ptr noundef %18)
  store ptr %19, ptr %5, align 8, !tbaa !9
  %20 = load ptr, ptr %2, align 8, !tbaa !4
  %21 = load ptr, ptr %5, align 8, !tbaa !9
  call void @luaC_fix(ptr noundef %20, ptr noundef %21)
  %22 = load i32, ptr %3, align 4, !tbaa !11
  %23 = add nsw i32 %22, 1
  %24 = trunc i32 %23 to i8
  %25 = load ptr, ptr %5, align 8, !tbaa !9
  %26 = getelementptr inbounds nuw %struct.TString, ptr %25, i32 0, i32 3
  store i8 %24, ptr %26, align 2, !tbaa !15
  call void @llvm.lifetime.end.p0(i64 8, ptr %5) #6
  br label %27

27:                                               ; preds = %13
  %28 = load i32, ptr %3, align 4, !tbaa !11
  %29 = add nsw i32 %28, 1
  store i32 %29, ptr %3, align 4, !tbaa !11
  br label %10

30:                                               ; preds = %10
  call void @llvm.lifetime.end.p0(i64 8, ptr %4) #6
  call void @llvm.lifetime.end.p0(i64 4, ptr %3) #6
  ret void
}