; Function Attrs: nounwind uwtable
define hidden void @luaX_init(ptr noundef %0) local_unnamed_addr #0 {
  %2 = tail call ptr @luaS_newlstr(ptr noundef %0, ptr noundef nonnull @.str, i64 noundef 4) #6
  tail call void @luaC_fix(ptr noundef %0, ptr noundef %2) #6
  br label %3

3:                                                ; preds = %1, %3
  %indvars.iv = phi i64 [ 0, %1 ], [ %indvars.iv.next, %3 ]
  %4 = getelementptr inbounds nuw [37 x ptr], ptr @luaX_tokens, i64 0, i64 %indvars.iv
  %5 = load ptr, ptr %4, align 8, !tbaa !4
  %6 = tail call ptr @luaS_new(ptr noundef %0, ptr noundef %5) #6
  tail call void @luaC_fix(ptr noundef %0, ptr noundef %6) #6
  %indvars.iv.next = add nuw nsw i64 %indvars.iv, 1
  %7 = getelementptr inbounds nuw i8, ptr %6, i64 10
  %8 = trunc nuw nsw i64 %indvars.iv.next to i8
  store i8 %8, ptr %7, align 2, !tbaa !9
  %exitcond.not = icmp eq i64 %indvars.iv.next, 22
  br i1 %exitcond.not, label %9, label %3

9:                                                ; preds = %3
  ret void
}